; Function Attrs: nounwind uwtable
define internal void @add_tracker(i32 %0, i16 signext %1, ptr noundef initializes((128, 136)) %2) #0 {
  fence acquire
  %4 = load ptr, ptr getelementptr inbounds nuw (i8, ptr @pmix_mca_psensor_file_component, i64 472), align 8, !tbaa !88
  %5 = getelementptr inbounds nuw i8, ptr %2, i64 128
  store ptr %4, ptr %5, align 8, !tbaa !88
  %6 = getelementptr inbounds nuw i8, ptr %4, i64 120
  store volatile ptr %2, ptr %6, align 8, !tbaa !89
  %7 = getelementptr inbounds nuw i8, ptr %2, i64 120
  store ptr getelementptr inbounds nuw (i8, ptr @pmix_mca_psensor_file_component, i64 344), ptr %7, align 8, !tbaa !89
  store ptr %2, ptr getelementptr inbounds nuw (i8, ptr @pmix_mca_psensor_file_component, i64 472), align 8, !tbaa !88
  %8 = load volatile i64, ptr getelementptr inbounds nuw (i8, ptr @pmix_mca_psensor_file_component, i64 488), align 8, !tbaa !90
  %9 = add i64 %8, 1
  store volatile i64 %9, ptr getelementptr inbounds nuw (i8, ptr @pmix_mca_psensor_file_component, i64 488), align 8, !tbaa !90
  %10 = getelementptr inbounds nuw i8, ptr %2, i64 168
  %11 = load ptr, ptr getelementptr inbounds nuw (i8, ptr @pmix_psensor_base, i64 272), align 8, !tbaa !79
  %12 = tail call i32 @pmix_event_assign(ptr noundef nonnull %10, ptr noundef %11, i32 noundef -1, i16 noundef signext 0, ptr noundef nonnull @file_sample, ptr noundef %2) #13
  %13 = getelementptr inbounds nuw i8, ptr %2, i64 424
  %14 = tail call i32 @event_add(ptr noundef nonnull %10, ptr noundef nonnull %13) #13
  %15 = getelementptr inbounds nuw i8, ptr %2, i64 160
  store i8 1, ptr %15, align 8, !tbaa !85
  ret void
}